target datalayout = "e-m:e-p270:32:32-p271:32:32-p272:64:64-i64:64-i128:128-f80:128-n8:16:32:64-S128"
target triple = "x86_64-pc-linux-gnu"

%struct.InternalGrant = type { i8, i32, ptr, i8, i64, ptr, ptr, i8, i32 }
%union.ListCell = type { ptr }
%struct.ScanKeyData = type { i32, i16, i16, i32, i32, %struct.FmgrInfo, i64 }
%struct.FmgrInfo = type { ptr, i32, i16, i8, i8, i8, ptr, ptr, ptr }
%struct.InternalDefaultACL = type { i32, i32, i8, i32, i8, i64, ptr, i8, i32 }
%struct.FormData_pg_default_acl = type { i32, i32, i32, i8 }
%struct.HeapTupleData = type { i32, %struct.ItemPointerData, i32, ptr }
%struct.ItemPointerData = type { %struct.BlockIdData, i16 }
%struct.BlockIdData = type { i16, i16 }
%struct.HeapTupleHeaderData = type { %union.anon.1, %struct.ItemPointerData, i16, i16, i8, [0 x i8] }
%union.anon.1 = type { %struct.HeapTupleFields }
%struct.HeapTupleFields = type { i32, i32, %union.anon.2 }
%union.anon.2 = type { i32 }

@.str.1 = private unnamed_addr constant [9 x i8] c"aclchk.c\00", align 1
@.str.27 = private unnamed_addr constant [40 x i8] c"could not find tuple for default ACL %u\00", align 1
@__func__.RemoveRoleFromObjectACL = private unnamed_addr constant [24 x i8] c"RemoveRoleFromObjectACL\00", align 1
@.str.28 = private unnamed_addr constant [32 x i8] c"unexpected default ACL type: %d\00", align 1
@.str.29 = private unnamed_addr constant [27 x i8] c"unexpected object class %u\00", align 1

; Function Attrs: inlinehint nounwind uwtable
define internal ptr @GETSTRUCT(ptr noundef %0) #7 {
  %2 = alloca ptr, align 8
  store ptr %0, ptr %2, align 8
  %3 = load ptr, ptr %2, align 8
  %4 = getelementptr inbounds nuw %struct.HeapTupleData, ptr %3, i32 0, i32 3
  %5 = load ptr, ptr %4, align 8
  %6 = load ptr, ptr %2, align 8
  %7 = getelementptr inbounds nuw %struct.HeapTupleData, ptr %6, i32 0, i32 3
  %8 = load ptr, ptr %7, align 8
  %9 = getelementptr inbounds nuw %struct.HeapTupleHeaderData, ptr %8, i32 0, i32 4
  %10 = load i8, ptr %9, align 2
  %11 = zext i8 %10 to i32
  %12 = sext i32 %11 to i64
  %13 = getelementptr inbounds i8, ptr %5, i64 %12
  ret ptr %13
}

; Function Attrs: inlinehint nounwind uwtable
define internal i64 @ObjectIdGetDatum(i32 noundef %0) #7 {
  %2 = alloca i32, align 4
  store i32 %0, ptr %2, align 4
  %3 = load i32, ptr %2, align 4
  %4 = zext i32 %3 to i64
  ret i64 %4
}

; Function Attrs: nounwind uwtable
define dso_local void @RemoveRoleFromObjectACL(i32 noundef %0, i32 noundef %1, i32 noundef %2) #0 {
  %4 = alloca i32, align 4
  %5 = alloca i32, align 4
  %6 = alloca i32, align 4
  %7 = alloca %struct.InternalDefaultACL, align 8
  %8 = alloca ptr, align 8
  %9 = alloca ptr, align 8
  %10 = alloca [1 x %struct.ScanKeyData], align 16
  %11 = alloca ptr, align 8
  %12 = alloca ptr, align 8
  %13 = alloca %union.ListCell, align 8
  %14 = alloca %struct.InternalGrant, align 8
  %15 = alloca %union.ListCell, align 8
  %16 = alloca %union.ListCell, align 8
  store i32 %0, ptr %4, align 4
  store i32 %1, ptr %5, align 4
  store i32 %2, ptr %6, align 4
  %17 = load i32, ptr %5, align 4
  %18 = icmp eq i32 %17, 826
  br i1 %18, label %19, label %97

19:                                               ; preds = %3
  call void @llvm.lifetime.start.p0(i64 48, ptr %7) #9
  call void @llvm.lifetime.start.p0(i64 8, ptr %8) #9
  call void @llvm.lifetime.start.p0(i64 8, ptr %9) #9
  call void @llvm.lifetime.start.p0(i64 72, ptr %10) #9
  call void @llvm.lifetime.start.p0(i64 8, ptr %11) #9
  call void @llvm.lifetime.start.p0(i64 8, ptr %12) #9
  %20 = call ptr @table_open(i32 noundef 826, i32 noundef 1)
  store ptr %20, ptr %9, align 8
  %21 = getelementptr inbounds [1 x %struct.ScanKeyData], ptr %10, i64 0, i64 0
  %22 = load i32, ptr %6, align 4
  %23 = call i64 @ObjectIdGetDatum(i32 noundef %22)
  call void @ScanKeyInit(ptr noundef %21, i16 noundef signext 1, i16 noundef zeroext 3, i32 noundef 184, i64 noundef %23)
  %24 = load ptr, ptr %9, align 8
  %25 = getelementptr inbounds [1 x %struct.ScanKeyData], ptr %10, i64 0, i64 0
  %26 = call ptr @systable_beginscan(ptr noundef %24, i32 noundef 828, i1 noundef zeroext true, ptr noundef null, i32 noundef 1, ptr noundef %25)
  store ptr %26, ptr %11, align 8
  %27 = load ptr, ptr %11, align 8
  %28 = call ptr @systable_getnext(ptr noundef %27)
  store ptr %28, ptr %12, align 8
  %29 = load ptr, ptr %12, align 8
  %30 = icmp ne ptr %29, null
  br i1 %30, label %43, label %31

31:                                               ; preds = %19
  br label %32

32:                                               ; preds = %31
  br i1 true, label %33, label %35

33:                                               ; preds = %32
  %34 = call zeroext i1 @errstart_cold(i32 noundef 21, ptr noundef null) #10
  br i1 %34, label %37, label %40

35:                                               ; preds = %32
  %36 = call zeroext i1 @errstart(i32 noundef 21, ptr noundef null)
  br i1 %36, label %37, label %40

37:                                               ; preds = %35, %33
  %38 = load i32, ptr %6, align 4
  %39 = call i32 (ptr, ...) @errmsg_internal(ptr noundef @.str.27, i32 noundef %38)
  call void @errfinish(ptr noundef @.str.1, i32 noundef 1418, ptr noundef @__func__.RemoveRoleFromObjectACL)
  br label %40

40:                                               ; preds = %37, %35, %33
  unreachable

41:                                               ; No predecessors!
  br label %42

42:                                               ; preds = %41
  br label %43

43:                                               ; preds = %42, %19
  %44 = load ptr, ptr %12, align 8
  %45 = call ptr @GETSTRUCT(ptr noundef %44)
  store ptr %45, ptr %8, align 8
  %46 = load ptr, ptr %8, align 8
  %47 = getelementptr inbounds nuw %struct.FormData_pg_default_acl, ptr %46, i32 0, i32 1
  %48 = load i32, ptr %47, align 4
  %49 = getelementptr inbounds nuw %struct.InternalDefaultACL, ptr %7, i32 0, i32 0
  store i32 %48, ptr %49, align 8
  %50 = load ptr, ptr %8, align 8
  %51 = getelementptr inbounds nuw %struct.FormData_pg_default_acl, ptr %50, i32 0, i32 2
  %52 = load i32, ptr %51, align 4
  %53 = getelementptr inbounds nuw %struct.InternalDefaultACL, ptr %7, i32 0, i32 1
  store i32 %52, ptr %53, align 4
  %54 = load ptr, ptr %8, align 8
  %55 = getelementptr inbounds nuw %struct.FormData_pg_default_acl, ptr %54, i32 0, i32 3
  %56 = load i8, ptr %55, align 4
  %57 = sext i8 %56 to i32
  switch i32 %57, label %68 [
    i32 114, label %58
    i32 83, label %60
    i32 102, label %62
    i32 84, label %64
    i32 110, label %66
  ]

58:                                               ; preds = %43
  %59 = getelementptr inbounds nuw %struct.InternalDefaultACL, ptr %7, i32 0, i32 3
  store i32 41, ptr %59, align 4
  br label %83

60:                                               ; preds = %43
  %61 = getelementptr inbounds nuw %struct.InternalDefaultACL, ptr %7, i32 0, i32 3
  store i32 37, ptr %61, align 4
  br label %83

62:                                               ; preds = %43
  %63 = getelementptr inbounds nuw %struct.InternalDefaultACL, ptr %7, i32 0, i32 3
  store i32 19, ptr %63, align 4
  br label %83

64:                                               ; preds = %43
  %65 = getelementptr inbounds nuw %struct.InternalDefaultACL, ptr %7, i32 0, i32 3
  store i32 49, ptr %65, align 4
  br label %83

66:                                               ; preds = %43
  %67 = getelementptr inbounds nuw %struct.InternalDefaultACL, ptr %7, i32 0, i32 3
  store i32 36, ptr %67, align 4
  br label %83

68:                                               ; preds = %43
  br label %69

69:                                               ; preds = %68
  br i1 true, label %70, label %72

70:                                               ; preds = %69
  %71 = call zeroext i1 @errstart_cold(i32 noundef 21, ptr noundef null) #10
  br i1 %71, label %74, label %80

72:                                               ; preds = %69
  %73 = call zeroext i1 @errstart(i32 noundef 21, ptr noundef null)
  br i1 %73, label %74, label %80

74:                                               ; preds = %72, %70
  %75 = load ptr, ptr %8, align 8
  %76 = getelementptr inbounds nuw %struct.FormData_pg_default_acl, ptr %75, i32 0, i32 3
  %77 = load i8, ptr %76, align 4
  %78 = sext i8 %77 to i32
  %79 = call i32 (ptr, ...) @errmsg_internal(ptr noundef @.str.28, i32 noundef %78)
  call void @errfinish(ptr noundef @.str.1, i32 noundef 1445, ptr noundef @__func__.RemoveRoleFromObjectACL)
  br label %80

80:                                               ; preds = %74, %72, %70
  unreachable

81:                                               ; No predecessors!
  br label %82

82:                                               ; preds = %81
  br label %83

83:                                               ; preds = %82, %66, %64, %62, %60, %58
  %84 = load ptr, ptr %11, align 8
  call void @systable_endscan(ptr noundef %84)
  %85 = load ptr, ptr %9, align 8
  call void @table_close(ptr noundef %85, i32 noundef 1)
  %86 = getelementptr inbounds nuw %struct.InternalDefaultACL, ptr %7, i32 0, i32 2
  store i8 0, ptr %86, align 8
  %87 = getelementptr inbounds nuw %struct.InternalDefaultACL, ptr %7, i32 0, i32 4
  store i8 1, ptr %87, align 8
  %88 = getelementptr inbounds nuw %struct.InternalDefaultACL, ptr %7, i32 0, i32 5
  store i64 0, ptr %88, align 8
  %89 = load i32, ptr %4, align 4
  store i32 %89, ptr %13, align 8
  %90 = getelementptr i8, ptr %13, i64 4
  call void @llvm.memset.p0.i64(ptr align 4 %90, i8 0, i64 4, i1 false)
  %91 = getelementptr inbounds nuw %union.ListCell, ptr %13, i32 0, i32 0
  %92 = load ptr, ptr %91, align 8
  %93 = call ptr @list_make1_impl(i32 noundef 471, ptr %92)
  %94 = getelementptr inbounds nuw %struct.InternalDefaultACL, ptr %7, i32 0, i32 6
  store ptr %93, ptr %94, align 8
  %95 = getelementptr inbounds nuw %struct.InternalDefaultACL, ptr %7, i32 0, i32 7
  store i8 0, ptr %95, align 8
  %96 = getelementptr inbounds nuw %struct.InternalDefaultACL, ptr %7, i32 0, i32 8
  store i32 1, ptr %96, align 4
  call void @SetDefaultACL(ptr noundef %7)
  call void @llvm.lifetime.end.p0(i64 8, ptr %12) #9
  call void @llvm.lifetime.end.p0(i64 8, ptr %11) #9
  call void @llvm.lifetime.end.p0(i64 72, ptr %10) #9
  call void @llvm.lifetime.end.p0(i64 8, ptr %9) #9
  call void @llvm.lifetime.end.p0(i64 8, ptr %8) #9
  call void @llvm.lifetime.end.p0(i64 48, ptr %7) #9
  br label %152

97:                                               ; preds = %3
  call void @llvm.lifetime.start.p0(i64 56, ptr %14) #9
  %98 = load i32, ptr %5, align 4
  switch i32 %98, label %121 [
    i32 1259, label %99
    i32 1262, label %101
    i32 1247, label %103
    i32 1255, label %105
    i32 2612, label %107
    i32 2613, label %109
    i32 2615, label %111
    i32 1213, label %113
    i32 1417, label %115
    i32 2328, label %117
    i32 6243, label %119
  ]

99:                                               ; preds = %97
  %100 = getelementptr inbounds nuw %struct.InternalGrant, ptr %14, i32 0, i32 1
  store i32 41, ptr %100, align 4
  br label %133

101:                                              ; preds = %97
  %102 = getelementptr inbounds nuw %struct.InternalGrant, ptr %14, i32 0, i32 1
  store i32 9, ptr %102, align 4
  br label %133

103:                                              ; preds = %97
  %104 = getelementptr inbounds nuw %struct.InternalGrant, ptr %14, i32 0, i32 1
  store i32 49, ptr %104, align 4
  br label %133

105:                                              ; preds = %97
  %106 = getelementptr inbounds nuw %struct.InternalGrant, ptr %14, i32 0, i32 1
  store i32 34, ptr %106, align 4
  br label %133

107:                                              ; preds = %97
  %108 = getelementptr inbounds nuw %struct.InternalGrant, ptr %14, i32 0, i32 1
  store i32 21, ptr %108, align 4
  br label %133

109:                                              ; preds = %97
  %110 = getelementptr inbounds nuw %struct.InternalGrant, ptr %14, i32 0, i32 1
  store i32 22, ptr %110, align 4
  br label %133

111:                                              ; preds = %97
  %112 = getelementptr inbounds nuw %struct.InternalGrant, ptr %14, i32 0, i32 1
  store i32 36, ptr %112, align 4
  br label %133

113:                                              ; preds = %97
  %114 = getelementptr inbounds nuw %struct.InternalGrant, ptr %14, i32 0, i32 1
  store i32 42, ptr %114, align 4
  br label %133

115:                                              ; preds = %97
  %116 = getelementptr inbounds nuw %struct.InternalGrant, ptr %14, i32 0, i32 1
  store i32 17, ptr %116, align 4
  br label %133

117:                                              ; preds = %97
  %118 = getelementptr inbounds nuw %struct.InternalGrant, ptr %14, i32 0, i32 1
  store i32 16, ptr %118, align 4
  br label %133

119:                                              ; preds = %97
  %120 = getelementptr inbounds nuw %struct.InternalGrant, ptr %14, i32 0, i32 1
  store i32 27, ptr %120, align 4
  br label %133

121:                                              ; preds = %97
  br label %122

122:                                              ; preds = %121
  br i1 true, label %123, label %125

123:                                              ; preds = %122
  %124 = call zeroext i1 @errstart_cold(i32 noundef 21, ptr noundef null) #10
  br i1 %124, label %127, label %130

125:                                              ; preds = %122
  %126 = call zeroext i1 @errstart(i32 noundef 21, ptr noundef null)
  br i1 %126, label %127, label %130

127:                                              ; preds = %125, %123
  %128 = load i32, ptr %5, align 4
  %129 = call i32 (ptr, ...) @errmsg_internal(ptr noundef @.str.29, i32 noundef %128)
  call void @errfinish(ptr noundef @.str.1, i32 noundef 1503, ptr noundef @__func__.RemoveRoleFromObjectACL)
  br label %130

130:                                              ; preds = %127, %125, %123
  unreachable

131:                                              ; No predecessors!
  br label %132

132:                                              ; preds = %131
  br label %133

133:                                              ; preds = %132, %119, %117, %115, %113, %111, %109, %107, %105, %103, %101, %99
  %134 = getelementptr inbounds nuw %struct.InternalGrant, ptr %14, i32 0, i32 0
  store i8 0, ptr %134, align 8
  %135 = load i32, ptr %6, align 4
  store i32 %135, ptr %15, align 8
  %136 = getelementptr i8, ptr %15, i64 4
  call void @llvm.memset.p0.i64(ptr align 4 %136, i8 0, i64 4, i1 false)
  %137 = getelementptr inbounds nuw %union.ListCell, ptr %15, i32 0, i32 0
  %138 = load ptr, ptr %137, align 8
  %139 = call ptr @list_make1_impl(i32 noundef 471, ptr %138)
  %140 = getelementptr inbounds nuw %struct.InternalGrant, ptr %14, i32 0, i32 2
  store ptr %139, ptr %140, align 8
  %141 = getelementptr inbounds nuw %struct.InternalGrant, ptr %14, i32 0, i32 3
  store i8 1, ptr %141, align 8
  %142 = getelementptr inbounds nuw %struct.InternalGrant, ptr %14, i32 0, i32 4
  store i64 0, ptr %142, align 8
  %143 = getelementptr inbounds nuw %struct.InternalGrant, ptr %14, i32 0, i32 5
  store ptr null, ptr %143, align 8
  %144 = load i32, ptr %4, align 4
  store i32 %144, ptr %16, align 8
  %145 = getelementptr i8, ptr %16, i64 4
  call void @llvm.memset.p0.i64(ptr align 4 %145, i8 0, i64 4, i1 false)
  %146 = getelementptr inbounds nuw %union.ListCell, ptr %16, i32 0, i32 0
  %147 = load ptr, ptr %146, align 8
  %148 = call ptr @list_make1_impl(i32 noundef 471, ptr %147)
  %149 = getelementptr inbounds nuw %struct.InternalGrant, ptr %14, i32 0, i32 6
  store ptr %148, ptr %149, align 8
  %150 = getelementptr inbounds nuw %struct.InternalGrant, ptr %14, i32 0, i32 7
  store i8 0, ptr %150, align 8
  %151 = getelementptr inbounds nuw %struct.InternalGrant, ptr %14, i32 0, i32 8
  store i32 1, ptr %151, align 4
  call void @ExecGrantStmt_oids(ptr noundef %14)
  call void @llvm.lifetime.end.p0(i64 56, ptr %14) #9
  br label %152

152:                                              ; preds = %133, %83
  ret void
}