; Function Attrs: nounwind uwtable
define dso_local void @RemoveRoleFromObjectACL(i32 noundef %0, i32 noundef %1, i32 noundef %2) local_unnamed_addr #0 {
  %4 = alloca %struct.InternalDefaultACL, align 8
  %5 = alloca [1 x %struct.ScanKeyData], align 16
  %6 = alloca %struct.InternalGrant, align 8
  %7 = icmp eq i32 %1, 826
  br i1 %7, label %8, label %48

8:                                                ; preds = %3
  call void @llvm.lifetime.start.p0(i64 48, ptr nonnull %4) #9
  call void @llvm.lifetime.start.p0(i64 72, ptr nonnull %5) #9
  %9 = tail call ptr @table_open(i32 noundef 826, i32 noundef 1) #9
  %10 = zext i32 %2 to i64
  call void @ScanKeyInit(ptr noundef nonnull %5, i16 noundef signext 1, i16 noundef zeroext 3, i32 noundef 184, i64 noundef %10) #9
  %11 = call ptr @systable_beginscan(ptr noundef %9, i32 noundef 828, i1 noundef zeroext true, ptr noundef null, i32 noundef 1, ptr noundef nonnull %5) #9
  %12 = call ptr @systable_getnext(ptr noundef %11) #9
  %.not = icmp eq ptr %12, null
  br i1 %.not, label %13, label %16

13:                                               ; preds = %8
  %14 = call zeroext i1 @errstart_cold(i32 noundef 21, ptr noundef null) #10
  call void @llvm.assume(i1 %14)
  %15 = call i32 (ptr, ...) @errmsg_internal(ptr noundef nonnull @.str.27, i32 noundef %2) #9
  call void @errfinish(ptr noundef nonnull @.str.1, i32 noundef 1418, ptr noundef nonnull @__func__.RemoveRoleFromObjectACL) #9
  unreachable

16:                                               ; preds = %8
  %17 = getelementptr i8, ptr %12, i64 16
  %.val = load ptr, ptr %17, align 8
  %18 = getelementptr inbounds nuw i8, ptr %.val, i64 22
  %19 = load i8, ptr %18, align 2
  %20 = zext i8 %19 to i64
  %21 = getelementptr inbounds nuw i8, ptr %.val, i64 %20
  %22 = getelementptr inbounds nuw i8, ptr %21, i64 4
  %23 = load i32, ptr %22, align 4
  store i32 %23, ptr %4, align 8
  %24 = getelementptr inbounds nuw i8, ptr %21, i64 8
  %25 = load i32, ptr %24, align 4
  %26 = getelementptr inbounds nuw i8, ptr %4, i64 4
  store i32 %25, ptr %26, align 4
  %27 = getelementptr inbounds nuw i8, ptr %21, i64 12
  %28 = load i8, ptr %27, align 4
  switch i8 %28, label %33 [
    i8 114, label %38
    i8 83, label %29
    i8 102, label %30
    i8 84, label %31
    i8 110, label %32
  ]

29:                                               ; preds = %16
  br label %38

30:                                               ; preds = %16
  br label %38

31:                                               ; preds = %16
  br label %38

32:                                               ; preds = %16
  br label %38

33:                                               ; preds = %16
  %34 = call zeroext i1 @errstart_cold(i32 noundef 21, ptr noundef null) #10
  call void @llvm.assume(i1 %34)
  %35 = load i8, ptr %27, align 4
  %36 = sext i8 %35 to i32
  %37 = call i32 (ptr, ...) @errmsg_internal(ptr noundef nonnull @.str.28, i32 noundef %36) #9
  call void @errfinish(ptr noundef nonnull @.str.1, i32 noundef 1445, ptr noundef nonnull @__func__.RemoveRoleFromObjectACL) #9
  unreachable

38:                                               ; preds = %16, %32, %31, %30, %29
  %.sink = phi i32 [ 36, %32 ], [ 49, %31 ], [ 19, %30 ], [ 37, %29 ], [ 41, %16 ]
  %39 = getelementptr inbounds nuw i8, ptr %4, i64 12
  store i32 %.sink, ptr %39, align 4
  call void @systable_endscan(ptr noundef %11) #9
  call void @table_close(ptr noundef %9, i32 noundef 1) #9
  %40 = getelementptr inbounds nuw i8, ptr %4, i64 8
  store i8 0, ptr %40, align 8
  %41 = getelementptr inbounds nuw i8, ptr %4, i64 16
  store i8 1, ptr %41, align 8
  %42 = getelementptr inbounds nuw i8, ptr %4, i64 24
  store i64 0, ptr %42, align 8
  %.sroa.02.0.insert.ext = zext i32 %0 to i64
  %43 = inttoptr i64 %.sroa.02.0.insert.ext to ptr
  %44 = call ptr @list_make1_impl(i32 noundef 471, ptr %43) #9
  %45 = getelementptr inbounds nuw i8, ptr %4, i64 32
  store ptr %44, ptr %45, align 8
  %46 = getelementptr inbounds nuw i8, ptr %4, i64 40
  store i8 0, ptr %46, align 8
  %47 = getelementptr inbounds nuw i8, ptr %4, i64 44
  store i32 1, ptr %47, align 4
  call fastcc void @SetDefaultACL(ptr noundef %4)
  call void @llvm.lifetime.end.p0(i64 72, ptr nonnull %5) #9
  call void @llvm.lifetime.end.p0(i64 48, ptr nonnull %4) #9
  br label %74

48:                                               ; preds = %3
  call void @llvm.lifetime.start.p0(i64 56, ptr nonnull %6) #9
  switch i32 %1, label %59 [
    i32 1259, label %62
    i32 1262, label %49
    i32 1247, label %50
    i32 1255, label %51
    i32 2612, label %52
    i32 2613, label %53
    i32 2615, label %54
    i32 1213, label %55
    i32 1417, label %56
    i32 2328, label %57
    i32 6243, label %58
  ]

49:                                               ; preds = %48
  br label %62

50:                                               ; preds = %48
  br label %62

51:                                               ; preds = %48
  br label %62

52:                                               ; preds = %48
  br label %62

53:                                               ; preds = %48
  br label %62

54:                                               ; preds = %48
  br label %62

55:                                               ; preds = %48
  br label %62

56:                                               ; preds = %48
  br label %62

57:                                               ; preds = %48
  br label %62

58:                                               ; preds = %48
  br label %62

59:                                               ; preds = %48
  %60 = tail call zeroext i1 @errstart_cold(i32 noundef 21, ptr noundef null) #10
  tail call void @llvm.assume(i1 %60)
  %61 = tail call i32 (ptr, ...) @errmsg_internal(ptr noundef nonnull @.str.29, i32 noundef %1) #9
  tail call void @errfinish(ptr noundef nonnull @.str.1, i32 noundef 1503, ptr noundef nonnull @__func__.RemoveRoleFromObjectACL) #9
  unreachable

62:                                               ; preds = %48, %58, %57, %56, %55, %54, %53, %52, %51, %50, %49
  %.sink21 = phi i32 [ 27, %58 ], [ 16, %57 ], [ 17, %56 ], [ 42, %55 ], [ 36, %54 ], [ 22, %53 ], [ 21, %52 ], [ 34, %51 ], [ 49, %50 ], [ 9, %49 ], [ 41, %48 ]
  %63 = getelementptr inbounds nuw i8, ptr %6, i64 4
  store i32 %.sink21, ptr %63, align 4
  store i8 0, ptr %6, align 8
  %.sroa.01.0.insert.ext = zext i32 %2 to i64
  %64 = inttoptr i64 %.sroa.01.0.insert.ext to ptr
  %65 = tail call ptr @list_make1_impl(i32 noundef 471, ptr %64) #9
  %66 = getelementptr inbounds nuw i8, ptr %6, i64 8
  store ptr %65, ptr %66, align 8
  %67 = getelementptr inbounds nuw i8, ptr %6, i64 16
  store i8 1, ptr %67, align 8
  %68 = getelementptr inbounds nuw i8, ptr %6, i64 24
  %.sroa.0.0.insert.ext = zext i32 %0 to i64
  %69 = inttoptr i64 %.sroa.0.0.insert.ext to ptr
  call void @llvm.memset.p0.i64(ptr noundef nonnull align 8 dereferenceable(16) %68, i8 0, i64 16, i1 false)
  %70 = tail call ptr @list_make1_impl(i32 noundef 471, ptr %69) #9
  %71 = getelementptr inbounds nuw i8, ptr %6, i64 40
  store ptr %70, ptr %71, align 8
  %72 = getelementptr inbounds nuw i8, ptr %6, i64 48
  store i8 0, ptr %72, align 8
  %73 = getelementptr inbounds nuw i8, ptr %6, i64 52
  store i32 1, ptr %73, align 4
  call fastcc void @ExecGrantStmt_oids(ptr noundef %6)
  call void @llvm.lifetime.end.p0(i64 56, ptr nonnull %6) #9
  br label %74

74:                                               ; preds = %62, %38
  ret void
}